; Function Attrs: nounwind uwtable
define hidden zeroext i1 @Wayland_data_device_clear_selection(ptr noundef captures(address_is_null) %0) local_unnamed_addr #0 {
  %.not = icmp eq ptr %0, null
  br i1 %.not, label %4, label %2

2:                                                ; preds = %1
  %3 = load ptr, ptr %0, align 8
  %.not8 = icmp eq ptr %3, null
  br i1 %.not8, label %4, label %6

4:                                                ; preds = %2, %1
  %5 = tail call zeroext i1 (ptr, ...) @SDL_SetError_REAL(ptr noundef nonnull @.str.10) #12
  br label %36

6:                                                ; preds = %2
  %7 = getelementptr inbounds nuw i8, ptr %0, i64 80
  %8 = load ptr, ptr %7, align 8
  %.not9 = icmp eq ptr %8, null
  br i1 %.not9, label %36, label %9

9:                                                ; preds = %6
  %10 = load ptr, ptr @WAYLAND_wl_proxy_marshal_flags, align 8
  %11 = load ptr, ptr @WAYLAND_wl_proxy_get_version, align 8
  %12 = tail call i32 %11(ptr noundef nonnull %3) #12
  %13 = tail call ptr (ptr, i32, ptr, i32, i32, ...) %10(ptr noundef nonnull %3, i32 noundef 1, ptr noundef null, i32 noundef %12, i32 noundef 0, ptr noundef null, i32 noundef 0) #12
  %14 = load ptr, ptr %7, align 8
  %.not.i = icmp eq ptr %14, null
  br i1 %.not.i, label %Wayland_data_source_destroy.exit, label %15

15:                                               ; preds = %9
  %16 = getelementptr inbounds nuw i8, ptr %14, i64 8
  %17 = load ptr, ptr %16, align 8
  %.not13.i = icmp eq ptr %17, null
  br i1 %.not13.i, label %23, label %18

18:                                               ; preds = %15
  %19 = getelementptr inbounds nuw i8, ptr %17, i64 80
  %20 = load ptr, ptr %19, align 8
  %21 = icmp eq ptr %20, %14
  br i1 %21, label %22, label %23

22:                                               ; preds = %18
  store ptr null, ptr %19, align 8
  br label %23

23:                                               ; preds = %22, %18, %15
  %24 = load ptr, ptr %14, align 8
  %25 = load ptr, ptr @WAYLAND_wl_proxy_marshal_flags, align 8
  %26 = load ptr, ptr @WAYLAND_wl_proxy_get_version, align 8
  %27 = tail call i32 %26(ptr noundef %24) #12
  %28 = tail call ptr (ptr, i32, ptr, i32, i32, ...) %25(ptr noundef %24, i32 noundef 1, ptr noundef null, i32 noundef %27, i32 noundef 1) #12
  %29 = getelementptr inbounds nuw i8, ptr %14, i64 24
  %30 = load i32, ptr %29, align 8
  %.not14.i = icmp eq i32 %30, 0
  br i1 %.not14.i, label %32, label %31

31:                                               ; preds = %23
  tail call void @SDL_CancelClipboardData(i32 noundef %30) #12
  br label %35

32:                                               ; preds = %23
  %33 = getelementptr inbounds nuw i8, ptr %14, i64 32
  %34 = load ptr, ptr %33, align 8
  tail call void @SDL_free_REAL(ptr noundef %34) #12
  br label %35

35:                                               ; preds = %32, %31
  tail call void @SDL_free_REAL(ptr noundef nonnull %14) #12
  br label %Wayland_data_source_destroy.exit

Wayland_data_source_destroy.exit:                 ; preds = %9, %35
  store ptr null, ptr %7, align 8
  br label %36

36:                                               ; preds = %6, %Wayland_data_source_destroy.exit, %4
  %.0 = phi i1 [ true, %Wayland_data_source_destroy.exit ], [ true, %6 ], [ %5, %4 ]
  ret i1 %.0
}